; Function Attrs: mustprogress uwtable
define internal fastcc void @_ZN12_GLOBAL__N_123AdaptiveManifoldFilterN11mapParallelEMS0_FvRKN2cv3MatERS2_ERKSt6vectorIS2_SaIS2_EERSA_(ptr noundef nonnull align 8 dereferenceable(592) %0, i64 %1, ptr noundef nonnull align 8 dereferenceable(24) %2, ptr noundef nonnull align 8 dereferenceable(24) %3) unnamed_addr #3 align 2 personality ptr @__gxx_personality_v0 {
  %5 = alloca %"class.cv::Range", align 4
  %6 = alloca %"struct.(anonymous namespace)::AdaptiveManifoldFilterN::MapPrallelLoopBody", align 8
  %7 = getelementptr inbounds nuw i8, ptr %2, i64 8
  %8 = load ptr, ptr %7, align 8, !tbaa !56
  %9 = load ptr, ptr %2, align 8, !tbaa !55
  %10 = ptrtoint ptr %8 to i64
  %11 = ptrtoint ptr %9 to i64
  %12 = sub i64 %10, %11
  %13 = sdiv exact i64 %12, 96
  %14 = getelementptr inbounds nuw i8, ptr %3, i64 8
  %15 = load ptr, ptr %14, align 8, !tbaa !56
  %16 = load ptr, ptr %3, align 8, !tbaa !55
  %17 = ptrtoint ptr %15 to i64
  %18 = ptrtoint ptr %16 to i64
  %19 = sub i64 %17, %18
  %20 = sdiv exact i64 %19, 96
  %21 = icmp ugt i64 %13, %20
  br i1 %21, label %22, label %24

22:                                               ; preds = %4
  %23 = sub nuw nsw i64 %13, %20
  tail call void @_ZNSt6vectorIN2cv3MatESaIS1_EE17_M_default_appendEm(ptr noundef nonnull align 8 dereferenceable(24) %3, i64 noundef %23)
  br label %_ZNSt6vectorIN2cv3MatESaIS1_EE6resizeEm.exit

24:                                               ; preds = %4
  %25 = icmp ult i64 %13, %20
  br i1 %25, label %26, label %_ZNSt6vectorIN2cv3MatESaIS1_EE6resizeEm.exit

26:                                               ; preds = %24
  %27 = getelementptr inbounds nuw i8, ptr %16, i64 %12
  %.not.i.i = icmp eq ptr %15, %27
  br i1 %.not.i.i, label %_ZNSt6vectorIN2cv3MatESaIS1_EE6resizeEm.exit, label %.lr.ph.i.i.i.i.i

.lr.ph.i.i.i.i.i:                                 ; preds = %26, %.lr.ph.i.i.i.i.i
  %.05.i.i.i.i.i = phi ptr [ %28, %.lr.ph.i.i.i.i.i ], [ %27, %26 ]
  tail call void @_ZN2cv3MatD1Ev(ptr noundef nonnull align 8 dereferenceable(96) %.05.i.i.i.i.i) #27
  %28 = getelementptr inbounds nuw i8, ptr %.05.i.i.i.i.i, i64 96
  %.not.i.i.i.i.i = icmp eq ptr %28, %15
  br i1 %.not.i.i.i.i.i, label %_ZSt8_DestroyIPN2cv3MatES1_EvT_S3_RSaIT0_E.exit.i.i, label %.lr.ph.i.i.i.i.i, !llvm.loop !57

_ZSt8_DestroyIPN2cv3MatES1_EvT_S3_RSaIT0_E.exit.i.i: ; preds = %.lr.ph.i.i.i.i.i
  store ptr %27, ptr %14, align 8, !tbaa !56
  br label %_ZNSt6vectorIN2cv3MatESaIS1_EE6resizeEm.exit

_ZNSt6vectorIN2cv3MatESaIS1_EE6resizeEm.exit:     ; preds = %22, %24, %26, %_ZSt8_DestroyIPN2cv3MatES1_EvT_S3_RSaIT0_E.exit.i.i
  call void @llvm.lifetime.start.p0(i64 8, ptr nonnull %5) #27
  %29 = load ptr, ptr %7, align 8, !tbaa !56
  %30 = load ptr, ptr %2, align 8, !tbaa !55
  %31 = ptrtoint ptr %29 to i64
  %32 = ptrtoint ptr %30 to i64
  %33 = sub i64 %31, %32
  %34 = sdiv exact i64 %33, 96
  %35 = trunc i64 %34 to i32
  store i32 0, ptr %5, align 4, !tbaa !153
  %36 = getelementptr inbounds nuw i8, ptr %5, i64 4
  store i32 %35, ptr %36, align 4, !tbaa !155
  call void @llvm.lifetime.start.p0(i64 48, ptr nonnull %6) #27
  store ptr getelementptr inbounds nuw inrange(-16, 24) (i8, ptr @_ZTVN12_GLOBAL__N_123AdaptiveManifoldFilterN18MapPrallelLoopBodyE, i64 16), ptr %6, align 8, !tbaa !3
  %37 = getelementptr inbounds nuw i8, ptr %6, i64 8
  store ptr %0, ptr %37, align 8, !tbaa !156
  %38 = getelementptr inbounds nuw i8, ptr %6, i64 16
  store i64 %1, ptr %38, align 8, !tbaa !160
  %.repack10.i = getelementptr inbounds nuw i8, ptr %6, i64 24
  store i64 0, ptr %.repack10.i, align 8, !tbaa !160
  %39 = getelementptr inbounds nuw i8, ptr %6, i64 32
  store ptr %2, ptr %39, align 8, !tbaa !161
  %40 = getelementptr inbounds nuw i8, ptr %6, i64 40
  store ptr %3, ptr %40, align 8, !tbaa !161
  invoke void @_ZN2cv13parallel_for_ERKNS_5RangeERKNS_16ParallelLoopBodyEd(ptr noundef nonnull align 4 dereferenceable(8) %5, ptr noundef nonnull align 8 dereferenceable(8) %6, double noundef -1.000000e+00)
          to label %41 unwind label %42

41:                                               ; preds = %_ZNSt6vectorIN2cv3MatESaIS1_EE6resizeEm.exit
  call void @_ZN2cv16ParallelLoopBodyD2Ev(ptr noundef nonnull align 8 dereferenceable(48) %6) #27
  call void @llvm.lifetime.end.p0(i64 48, ptr nonnull %6) #27
  call void @llvm.lifetime.end.p0(i64 8, ptr nonnull %5) #27
  ret void

42:                                               ; preds = %_ZNSt6vectorIN2cv3MatESaIS1_EE6resizeEm.exit
  %43 = landingpad { ptr, i32 }
          cleanup
  call void @_ZN2cv16ParallelLoopBodyD2Ev(ptr noundef nonnull align 8 dereferenceable(48) %6) #27
  call void @llvm.lifetime.end.p0(i64 48, ptr nonnull %6) #27
  call void @llvm.lifetime.end.p0(i64 8, ptr nonnull %5) #27
  resume { ptr, i32 } %43
}